target datalayout = "e-m:e-p270:32:32-p271:32:32-p272:64:64-i64:64-i128:128-f80:128-n8:16:32:64-S128"
target triple = "x86_64-pc-linux-gnu"

%struct.Abc_Ntk_t_ = type { i32, i32, ptr, ptr, ptr, ptr, ptr, ptr, ptr, ptr, ptr, ptr, ptr, [11 x i32], i32, i32, i32, i32, ptr, i32, ptr, ptr, i32, i32, i32, double, i32, %struct.Vec_Int_t_, ptr, ptr, ptr, ptr, ptr, float, i32, ptr, ptr, ptr, ptr, ptr, ptr, ptr, ptr, ptr, ptr, ptr, ptr, ptr, ptr, ptr, ptr, ptr, ptr, ptr, ptr, ptr }
%struct.Vec_Int_t_ = type { i32, i32, ptr }
%struct.Abc_Obj_t_ = type { ptr, ptr, i32, i32, %struct.Vec_Int_t_, %struct.Vec_Int_t_, %union.anon, %union.anon.0 }
%union.anon = type { ptr }
%union.anon.0 = type { ptr }
%struct.Vec_Ptr_t_ = type { i32, i32, ptr }

@.str.7 = private unnamed_addr constant [2 x i8] c"\0A\00", align 1
@.str.114 = private unnamed_addr constant [26 x i8] c"Structural support info:\0A\00", align 1
@.str.115 = private unnamed_addr constant [63 x i8] c"%5d  %20s :  Cone = %5d.  Supp = %5d. (PIs = %5d. FFs = %5d.)\0A\00", align 1
@.str.116 = private unnamed_addr constant [22 x i8] c"Actual support info:\0A\00", align 1
@.str.117 = private unnamed_addr constant [3 x i8] c"%d\00", align 1

; Function Attrs: nounwind uwtable
define internal i32 @Abc_ObjIsPi(ptr noundef %0) #0 {
  %2 = alloca ptr, align 8
  store ptr %0, ptr %2, align 8
  %3 = load ptr, ptr %2, align 8
  %4 = getelementptr inbounds %struct.Abc_Obj_t_, ptr %3, i32 0, i32 3
  %5 = load i32, ptr %4, align 4
  %6 = and i32 %5, 15
  %7 = icmp eq i32 %6, 2
  %8 = zext i1 %7 to i32
  ret i32 %8
}

; Function Attrs: nounwind uwtable
define internal ptr @Vec_PtrEntry(ptr noundef %0, i32 noundef %1) #0 {
  %3 = alloca ptr, align 8
  %4 = alloca i32, align 4
  store ptr %0, ptr %3, align 8
  store i32 %1, ptr %4, align 4
  %5 = load ptr, ptr %3, align 8
  %6 = getelementptr inbounds %struct.Vec_Ptr_t_, ptr %5, i32 0, i32 2
  %7 = load ptr, ptr %6, align 8
  %8 = load i32, ptr %4, align 4
  %9 = sext i32 %8 to i64
  %10 = getelementptr inbounds ptr, ptr %7, i64 %9
  %11 = load ptr, ptr %10, align 8
  ret ptr %11
}

; Function Attrs: nounwind uwtable
define internal i32 @Vec_PtrSize(ptr noundef %0) #0 {
  %2 = alloca ptr, align 8
  store ptr %0, ptr %2, align 8
  %3 = load ptr, ptr %2, align 8
  %4 = getelementptr inbounds %struct.Vec_Ptr_t_, ptr %3, i32 0, i32 1
  %5 = load i32, ptr %4, align 4
  ret i32 %5
}

; Function Attrs: nounwind uwtable
define internal ptr @Abc_NtkCi(ptr noundef %0, i32 noundef %1) #0 {
  %3 = alloca ptr, align 8
  %4 = alloca i32, align 4
  store ptr %0, ptr %3, align 8
  store i32 %1, ptr %4, align 4
  %5 = load ptr, ptr %3, align 8
  %6 = getelementptr inbounds %struct.Abc_Ntk_t_, ptr %5, i32 0, i32 8
  %7 = load ptr, ptr %6, align 8
  %8 = load i32, ptr %4, align 4
  %9 = call ptr @Vec_PtrEntry(ptr noundef %7, i32 noundef %8)
  ret ptr %9
}

; Function Attrs: nounwind uwtable
define internal i32 @Abc_NtkCiNum(ptr noundef %0) #0 {
  %2 = alloca ptr, align 8
  store ptr %0, ptr %2, align 8
  %3 = load ptr, ptr %2, align 8
  %4 = getelementptr inbounds %struct.Abc_Ntk_t_, ptr %3, i32 0, i32 8
  %5 = load ptr, ptr %4, align 8
  %6 = call i32 @Vec_PtrSize(ptr noundef %5)
  ret i32 %6
}

; Function Attrs: nounwind uwtable
define internal void @Vec_PtrFree(ptr noundef %0) #0 {
  %2 = alloca ptr, align 8
  store ptr %0, ptr %2, align 8
  %3 = load ptr, ptr %2, align 8
  %4 = getelementptr inbounds %struct.Vec_Ptr_t_, ptr %3, i32 0, i32 2
  %5 = load ptr, ptr %4, align 8
  %6 = icmp ne ptr %5, null
  br i1 %6, label %7, label %13

7:                                                ; preds = %1
  %8 = load ptr, ptr %2, align 8
  %9 = getelementptr inbounds %struct.Vec_Ptr_t_, ptr %8, i32 0, i32 2
  %10 = load ptr, ptr %9, align 8
  call void @free(ptr noundef %10) #11
  %11 = load ptr, ptr %2, align 8
  %12 = getelementptr inbounds %struct.Vec_Ptr_t_, ptr %11, i32 0, i32 2
  store ptr null, ptr %12, align 8
  br label %14

13:                                               ; preds = %1
  br label %14

14:                                               ; preds = %13, %7
  %15 = load ptr, ptr %2, align 8
  %16 = icmp ne ptr %15, null
  br i1 %16, label %17, label %19

17:                                               ; preds = %14
  %18 = load ptr, ptr %2, align 8
  call void @free(ptr noundef %18) #11
  store ptr null, ptr %2, align 8
  br label %20

19:                                               ; preds = %14
  br label %20

20:                                               ; preds = %19, %17
  ret void
}

; Function Attrs: nounwind uwtable
define i32 @Abc_NtkCountPis(ptr noundef %0) #0 {
  %2 = alloca ptr, align 8
  %3 = alloca ptr, align 8
  %4 = alloca i32, align 4
  %5 = alloca i32, align 4
  store ptr %0, ptr %2, align 8
  store i32 0, ptr %5, align 4
  store i32 0, ptr %4, align 4
  br label %6

6:                                                ; preds = %22, %1
  %7 = load i32, ptr %4, align 4
  %8 = load ptr, ptr %2, align 8
  %9 = call i32 @Vec_PtrSize(ptr noundef %8)
  %10 = icmp slt i32 %7, %9
  br i1 %10, label %11, label %15

11:                                               ; preds = %6
  %12 = load ptr, ptr %2, align 8
  %13 = load i32, ptr %4, align 4
  %14 = call ptr @Vec_PtrEntry(ptr noundef %12, i32 noundef %13)
  store ptr %14, ptr %3, align 8
  br label %15

15:                                               ; preds = %11, %6
  %16 = phi i1 [ false, %6 ], [ true, %11 ]
  br i1 %16, label %17, label %25

17:                                               ; preds = %15
  %18 = load ptr, ptr %3, align 8
  %19 = call i32 @Abc_ObjIsPi(ptr noundef %18)
  %20 = load i32, ptr %5, align 4
  %21 = add nsw i32 %20, %19
  store i32 %21, ptr %5, align 4
  br label %22

22:                                               ; preds = %17
  %23 = load i32, ptr %4, align 4
  %24 = add nsw i32 %23, 1
  store i32 %24, ptr %4, align 4
  br label %6, !llvm.loop !81

25:                                               ; preds = %15
  %26 = load i32, ptr %5, align 4
  ret i32 %26
}

; Function Attrs: nounwind uwtable
define internal ptr @Abc_NtkCo(ptr noundef %0, i32 noundef %1) #0 {
  %3 = alloca ptr, align 8
  %4 = alloca i32, align 4
  store ptr %0, ptr %3, align 8
  store i32 %1, ptr %4, align 4
  %5 = load ptr, ptr %3, align 8
  %6 = getelementptr inbounds %struct.Abc_Ntk_t_, ptr %5, i32 0, i32 9
  %7 = load ptr, ptr %6, align 8
  %8 = load i32, ptr %4, align 4
  %9 = call ptr @Vec_PtrEntry(ptr noundef %7, i32 noundef %8)
  ret ptr %9
}

; Function Attrs: nounwind uwtable
define internal i32 @Abc_NtkCoNum(ptr noundef %0) #0 {
  %2 = alloca ptr, align 8
  store ptr %0, ptr %2, align 8
  %3 = load ptr, ptr %2, align 8
  %4 = getelementptr inbounds %struct.Abc_Ntk_t_, ptr %3, i32 0, i32 9
  %5 = load ptr, ptr %4, align 8
  %6 = call i32 @Vec_PtrSize(ptr noundef %5)
  ret i32 %6
}

; Function Attrs: nounwind uwtable
define void @Abc_NtkPrintStrSupports(ptr noundef %0, i32 noundef %1) #0 {
  %3 = alloca ptr, align 8
  %4 = alloca i32, align 4
  %5 = alloca ptr, align 8
  %6 = alloca ptr, align 8
  %7 = alloca ptr, align 8
  %8 = alloca i32, align 4
  %9 = alloca i32, align 4
  %10 = alloca i32, align 4
  store ptr %0, ptr %3, align 8
  store i32 %1, ptr %4, align 4
  %11 = call i32 (ptr, ...) @printf(ptr noundef @.str.114)
  store i32 0, ptr %8, align 4
  br label %12

12:                                               ; preds = %48, %2
  %13 = load i32, ptr %8, align 4
  %14 = load ptr, ptr %3, align 8
  %15 = call i32 @Abc_NtkCoNum(ptr noundef %14)
  %16 = icmp slt i32 %13, %15
  br i1 %16, label %17, label %21

17:                                               ; preds = %12
  %18 = load ptr, ptr %3, align 8
  %19 = load i32, ptr %8, align 4
  %20 = call ptr @Abc_NtkCo(ptr noundef %18, i32 noundef %19)
  store ptr %20, ptr %7, align 8
  br label %21

21:                                               ; preds = %17, %12
  %22 = phi i1 [ false, %12 ], [ true, %17 ]
  br i1 %22, label %23, label %51

23:                                               ; preds = %21
  %24 = load ptr, ptr %3, align 8
  %25 = call ptr @Abc_NtkNodeSupport(ptr noundef %24, ptr noundef %7, i32 noundef 1)
  store ptr %25, ptr %5, align 8
  %26 = load ptr, ptr %3, align 8
  %27 = call ptr @Abc_NtkDfsNodes(ptr noundef %26, ptr noundef %7, i32 noundef 1)
  store ptr %27, ptr %6, align 8
  %28 = load ptr, ptr %5, align 8
  %29 = call i32 @Abc_NtkCountPis(ptr noundef %28)
  store i32 %29, ptr %10, align 4
  %30 = load i32, ptr %8, align 4
  %31 = load ptr, ptr %7, align 8
  %32 = call ptr @Abc_ObjName(ptr noundef %31)
  %33 = load ptr, ptr %6, align 8
  %34 = getelementptr inbounds %struct.Vec_Ptr_t_, ptr %33, i32 0, i32 1
  %35 = load i32, ptr %34, align 4
  %36 = load ptr, ptr %5, align 8
  %37 = getelementptr inbounds %struct.Vec_Ptr_t_, ptr %36, i32 0, i32 1
  %38 = load i32, ptr %37, align 4
  %39 = load i32, ptr %10, align 4
  %40 = load ptr, ptr %5, align 8
  %41 = getelementptr inbounds %struct.Vec_Ptr_t_, ptr %40, i32 0, i32 1
  %42 = load i32, ptr %41, align 4
  %43 = load i32, ptr %10, align 4
  %44 = sub nsw i32 %42, %43
  %45 = call i32 (ptr, ...) @printf(ptr noundef @.str.115, i32 noundef %30, ptr noundef %32, i32 noundef %35, i32 noundef %38, i32 noundef %39, i32 noundef %44)
  %46 = load ptr, ptr %6, align 8
  call void @Vec_PtrFree(ptr noundef %46)
  %47 = load ptr, ptr %5, align 8
  call void @Vec_PtrFree(ptr noundef %47)
  br label %48

48:                                               ; preds = %23
  %49 = load i32, ptr %8, align 4
  %50 = add nsw i32 %49, 1
  store i32 %50, ptr %8, align 4
  br label %12, !llvm.loop !82

51:                                               ; preds = %21
  %52 = load i32, ptr %4, align 4
  %53 = icmp ne i32 %52, 0
  br i1 %53, label %56, label %54

54:                                               ; preds = %51
  %55 = load ptr, ptr %3, align 8
  call void @Abc_NtkCleanMarkA(ptr noundef %55)
  br label %164

56:                                               ; preds = %51
  store i32 0, ptr %9, align 4
  br label %57

57:                                               ; preds = %74, %56
  %58 = load i32, ptr %9, align 4
  %59 = load ptr, ptr %3, align 8
  %60 = call i32 @Abc_NtkCiNum(ptr noundef %59)
  %61 = icmp slt i32 %58, %60
  br i1 %61, label %62, label %66

62:                                               ; preds = %57
  %63 = load ptr, ptr %3, align 8
  %64 = load i32, ptr %9, align 4
  %65 = call ptr @Abc_NtkCi(ptr noundef %63, i32 noundef %64)
  store ptr %65, ptr %7, align 8
  br label %66

66:                                               ; preds = %62, %57
  %67 = phi i1 [ false, %57 ], [ true, %62 ]
  br i1 %67, label %68, label %77

68:                                               ; preds = %66
  %69 = load ptr, ptr %7, align 8
  %70 = getelementptr inbounds %struct.Abc_Obj_t_, ptr %69, i32 0, i32 3
  %71 = load i32, ptr %70, align 4
  %72 = and i32 %71, -17
  %73 = or i32 %72, 0
  store i32 %73, ptr %70, align 4
  br label %74

74:                                               ; preds = %68
  %75 = load i32, ptr %9, align 4
  %76 = add nsw i32 %75, 1
  store i32 %76, ptr %9, align 4
  br label %57, !llvm.loop !83

77:                                               ; preds = %66
  %78 = call i32 (ptr, ...) @printf(ptr noundef @.str.116)
  store i32 0, ptr %8, align 4
  br label %79

79:                                               ; preds = %159, %77
  %80 = load i32, ptr %8, align 4
  %81 = load ptr, ptr %3, align 8
  %82 = call i32 @Abc_NtkCoNum(ptr noundef %81)
  %83 = icmp slt i32 %80, %82
  br i1 %83, label %84, label %88

84:                                               ; preds = %79
  %85 = load ptr, ptr %3, align 8
  %86 = load i32, ptr %8, align 4
  %87 = call ptr @Abc_NtkCo(ptr noundef %85, i32 noundef %86)
  store ptr %87, ptr %7, align 8
  br label %88

88:                                               ; preds = %84, %79
  %89 = phi i1 [ false, %79 ], [ true, %84 ]
  br i1 %89, label %90, label %162

90:                                               ; preds = %88
  %91 = load ptr, ptr %3, align 8
  %92 = call ptr @Abc_NtkNodeSupport(ptr noundef %91, ptr noundef %7, i32 noundef 1)
  store ptr %92, ptr %5, align 8
  store i32 0, ptr %9, align 4
  br label %93

93:                                               ; preds = %110, %90
  %94 = load i32, ptr %9, align 4
  %95 = load ptr, ptr %5, align 8
  %96 = call i32 @Vec_PtrSize(ptr noundef %95)
  %97 = icmp slt i32 %94, %96
  br i1 %97, label %98, label %102

98:                                               ; preds = %93
  %99 = load ptr, ptr %5, align 8
  %100 = load i32, ptr %9, align 4
  %101 = call ptr @Vec_PtrEntry(ptr noundef %99, i32 noundef %100)
  store ptr %101, ptr %7, align 8
  br label %102

102:                                              ; preds = %98, %93
  %103 = phi i1 [ false, %93 ], [ true, %98 ]
  br i1 %103, label %104, label %113

104:                                              ; preds = %102
  %105 = load ptr, ptr %7, align 8
  %106 = getelementptr inbounds %struct.Abc_Obj_t_, ptr %105, i32 0, i32 3
  %107 = load i32, ptr %106, align 4
  %108 = and i32 %107, -17
  %109 = or i32 %108, 16
  store i32 %109, ptr %106, align 4
  br label %110

110:                                              ; preds = %104
  %111 = load i32, ptr %9, align 4
  %112 = add nsw i32 %111, 1
  store i32 %112, ptr %9, align 4
  br label %93, !llvm.loop !84

113:                                              ; preds = %102
  %114 = load ptr, ptr %5, align 8
  call void @Vec_PtrFree(ptr noundef %114)
  store i32 0, ptr %9, align 4
  br label %115

115:                                              ; preds = %133, %113
  %116 = load i32, ptr %9, align 4
  %117 = load ptr, ptr %3, align 8
  %118 = call i32 @Abc_NtkCiNum(ptr noundef %117)
  %119 = icmp slt i32 %116, %118
  br i1 %119, label %120, label %124

120:                                              ; preds = %115
  %121 = load ptr, ptr %3, align 8
  %122 = load i32, ptr %9, align 4
  %123 = call ptr @Abc_NtkCi(ptr noundef %121, i32 noundef %122)
  store ptr %123, ptr %7, align 8
  br label %124

124:                                              ; preds = %120, %115
  %125 = phi i1 [ false, %115 ], [ true, %120 ]
  br i1 %125, label %126, label %136

126:                                              ; preds = %124
  %127 = load ptr, ptr %7, align 8
  %128 = getelementptr inbounds %struct.Abc_Obj_t_, ptr %127, i32 0, i32 3
  %129 = load i32, ptr %128, align 4
  %130 = lshr i32 %129, 4
  %131 = and i32 %130, 1
  %132 = call i32 (ptr, ...) @printf(ptr noundef @.str.117, i32 noundef %131)
  br label %133

133:                                              ; preds = %126
  %134 = load i32, ptr %9, align 4
  %135 = add nsw i32 %134, 1
  store i32 %135, ptr %9, align 4
  br label %115, !llvm.loop !85

136:                                              ; preds = %124
  %137 = call i32 (ptr, ...) @printf(ptr noundef @.str.7)
  store i32 0, ptr %9, align 4
  br label %138

138:                                              ; preds = %155, %136
  %139 = load i32, ptr %9, align 4
  %140 = load ptr, ptr %3, align 8
  %141 = call i32 @Abc_NtkCiNum(ptr noundef %140)
  %142 = icmp slt i32 %139, %141
  br i1 %142, label %143, label %147

143:                                              ; preds = %138
  %144 = load ptr, ptr %3, align 8
  %145 = load i32, ptr %9, align 4
  %146 = call ptr @Abc_NtkCi(ptr noundef %144, i32 noundef %145)
  store ptr %146, ptr %7, align 8
  br label %147

147:                                              ; preds = %143, %138
  %148 = phi i1 [ false, %138 ], [ true, %143 ]
  br i1 %148, label %149, label %158

149:                                              ; preds = %147
  %150 = load ptr, ptr %7, align 8
  %151 = getelementptr inbounds %struct.Abc_Obj_t_, ptr %150, i32 0, i32 3
  %152 = load i32, ptr %151, align 4
  %153 = and i32 %152, -17
  %154 = or i32 %153, 0
  store i32 %154, ptr %151, align 4
  br label %155

155:                                              ; preds = %149
  %156 = load i32, ptr %9, align 4
  %157 = add nsw i32 %156, 1
  store i32 %157, ptr %9, align 4
  br label %138, !llvm.loop !86

158:                                              ; preds = %147
  br label %159

159:                                              ; preds = %158
  %160 = load i32, ptr %8, align 4
  %161 = add nsw i32 %160, 1
  store i32 %161, ptr %8, align 4
  br label %79, !llvm.loop !87

162:                                              ; preds = %88
  %163 = load ptr, ptr %3, align 8
  call void @Abc_NtkCleanMarkA(ptr noundef %163)
  br label %164

164:                                              ; preds = %162, %54
  ret void
}