; Function Attrs: nounwind uwtable
define void @Abc_NtkPrintStrSupports(ptr noundef %0, i32 noundef %1) local_unnamed_addr #0 {
  %3 = alloca ptr, align 8
  %puts = tail call i32 @puts(ptr nonnull dereferenceable(1) @str.4)
  %4 = getelementptr i8, ptr %0, i64 64
  %.val6375 = load ptr, ptr %4, align 8
  %5 = getelementptr i8, ptr %.val6375, i64 4
  %.val63.val76 = load i32, ptr %5, align 4
  %6 = icmp sgt i32 %.val63.val76, 0
  br i1 %6, label %.lr.ph, label %.critedge

.lr.ph:                                           ; preds = %2, %Vec_PtrFree.exit70
  %indvars.iv = phi i64 [ %indvars.iv.next, %Vec_PtrFree.exit70 ], [ 0, %2 ]
  %.val6378 = phi ptr [ %.val63, %Vec_PtrFree.exit70 ], [ %.val6375, %2 ]
  %7 = getelementptr i8, ptr %.val6378, i64 8
  %.val68.val = load ptr, ptr %7, align 8
  %8 = getelementptr inbounds nuw ptr, ptr %.val68.val, i64 %indvars.iv
  %9 = load ptr, ptr %8, align 8
  store ptr %9, ptr %3, align 8
  %10 = call ptr @Abc_NtkNodeSupport(ptr noundef nonnull %0, ptr noundef nonnull %3, i32 noundef 1) #19
  %11 = call ptr @Abc_NtkDfsNodes(ptr noundef nonnull %0, ptr noundef nonnull %3, i32 noundef 1) #19
  %12 = getelementptr i8, ptr %10, i64 4
  %.val.i = load i32, ptr %12, align 4
  %13 = icmp sgt i32 %.val.i, 0
  br i1 %13, label %.lr.ph.i, label %Abc_NtkCountPis.exit

.lr.ph.i:                                         ; preds = %.lr.ph
  %14 = getelementptr i8, ptr %10, i64 8
  %.val8.i = load ptr, ptr %14, align 8
  %wide.trip.count.i = zext nneg i32 %.val.i to i64
  br label %15

15:                                               ; preds = %15, %.lr.ph.i
  %indvars.iv.i = phi i64 [ 0, %.lr.ph.i ], [ %indvars.iv.next.i, %15 ]
  %.011.i = phi i32 [ 0, %.lr.ph.i ], [ %22, %15 ]
  %16 = getelementptr inbounds nuw ptr, ptr %.val8.i, i64 %indvars.iv.i
  %17 = load ptr, ptr %16, align 8
  %18 = getelementptr i8, ptr %17, i64 20
  %.val9.i = load i32, ptr %18, align 4
  %19 = and i32 %.val9.i, 15
  %20 = icmp eq i32 %19, 2
  %21 = zext i1 %20 to i32
  %22 = add nuw nsw i32 %.011.i, %21
  %indvars.iv.next.i = add nuw nsw i64 %indvars.iv.i, 1
  %exitcond.not.i = icmp eq i64 %indvars.iv.next.i, %wide.trip.count.i
  br i1 %exitcond.not.i, label %Abc_NtkCountPis.exit, label %15, !llvm.loop !84

Abc_NtkCountPis.exit:                             ; preds = %15, %.lr.ph
  %.0.lcssa.i = phi i32 [ 0, %.lr.ph ], [ %22, %15 ]
  %23 = load ptr, ptr %3, align 8
  %24 = call ptr @Abc_ObjName(ptr noundef %23) #19
  %25 = getelementptr inbounds nuw i8, ptr %11, i64 4
  %26 = load i32, ptr %25, align 4
  %27 = load i32, ptr %12, align 4
  %28 = sub nsw i32 %27, %.0.lcssa.i
  %29 = trunc nuw nsw i64 %indvars.iv to i32
  %30 = call i32 (ptr, ...) @printf(ptr noundef nonnull dereferenceable(1) @.str.115, i32 noundef %29, ptr noundef %24, i32 noundef %26, i32 noundef %27, i32 noundef %.0.lcssa.i, i32 noundef %28)
  %31 = getelementptr inbounds nuw i8, ptr %11, i64 8
  %32 = load ptr, ptr %31, align 8
  %.not.i = icmp eq ptr %32, null
  br i1 %.not.i, label %Vec_PtrFree.exit, label %33

33:                                               ; preds = %Abc_NtkCountPis.exit
  call void @free(ptr noundef nonnull %32) #19
  br label %Vec_PtrFree.exit

Vec_PtrFree.exit:                                 ; preds = %Abc_NtkCountPis.exit, %33
  call void @free(ptr noundef nonnull %11) #19
  %34 = getelementptr inbounds nuw i8, ptr %10, i64 8
  %35 = load ptr, ptr %34, align 8
  %.not.i69 = icmp eq ptr %35, null
  br i1 %.not.i69, label %Vec_PtrFree.exit70, label %36

36:                                               ; preds = %Vec_PtrFree.exit
  call void @free(ptr noundef nonnull %35) #19
  br label %Vec_PtrFree.exit70

Vec_PtrFree.exit70:                               ; preds = %Vec_PtrFree.exit, %36
  call void @free(ptr noundef nonnull %10) #19
  %indvars.iv.next = add nuw nsw i64 %indvars.iv, 1
  %.val63 = load ptr, ptr %4, align 8
  %37 = getelementptr i8, ptr %.val63, i64 4
  %.val63.val = load i32, ptr %37, align 4
  %38 = sext i32 %.val63.val to i64
  %39 = icmp slt i64 %indvars.iv.next, %38
  br i1 %39, label %.lr.ph, label %.critedge, !llvm.loop !85

.critedge:                                        ; preds = %Vec_PtrFree.exit70, %2
  %.not = icmp eq i32 %1, 0
  br i1 %.not, label %.critedge4, label %.preheader

.preheader:                                       ; preds = %.critedge
  %40 = getelementptr i8, ptr %0, i64 56
  %.val6179 = load ptr, ptr %40, align 8
  %41 = getelementptr i8, ptr %.val6179, i64 4
  %.val61.val80 = load i32, ptr %41, align 4
  %42 = icmp sgt i32 %.val61.val80, 0
  br i1 %42, label %.lr.ph83, label %.critedge2

.lr.ph83:                                         ; preds = %.preheader, %.lr.ph83
  %indvars.iv103 = phi i64 [ %indvars.iv.next104, %.lr.ph83 ], [ 0, %.preheader ]
  %.val6182 = phi ptr [ %.val61, %.lr.ph83 ], [ %.val6179, %.preheader ]
  %43 = getelementptr i8, ptr %.val6182, i64 8
  %.val66.val = load ptr, ptr %43, align 8
  %44 = getelementptr inbounds nuw ptr, ptr %.val66.val, i64 %indvars.iv103
  %45 = load ptr, ptr %44, align 8
  store ptr %45, ptr %3, align 8
  %46 = getelementptr inbounds nuw i8, ptr %45, i64 20
  %47 = load i32, ptr %46, align 4
  %48 = and i32 %47, -17
  store i32 %48, ptr %46, align 4
  %indvars.iv.next104 = add nuw nsw i64 %indvars.iv103, 1
  %.val61 = load ptr, ptr %40, align 8
  %49 = getelementptr i8, ptr %.val61, i64 4
  %.val61.val = load i32, ptr %49, align 4
  %50 = sext i32 %.val61.val to i64
  %51 = icmp slt i64 %indvars.iv.next104, %50
  br i1 %51, label %.lr.ph83, label %.critedge2, !llvm.loop !86

.critedge2:                                       ; preds = %.lr.ph83, %.preheader
  %puts57 = call i32 @puts(ptr nonnull dereferenceable(1) @str.5)
  %.val6297 = load ptr, ptr %4, align 8
  %52 = getelementptr i8, ptr %.val6297, i64 4
  %.val62.val98 = load i32, ptr %52, align 4
  %53 = icmp sgt i32 %.val62.val98, 0
  br i1 %53, label %.lr.ph101, label %.critedge4

.lr.ph101:                                        ; preds = %.critedge2, %.critedge10
  %indvars.iv115 = phi i64 [ %indvars.iv.next116, %.critedge10 ], [ 0, %.critedge2 ]
  %.val62100 = phi ptr [ %.val62, %.critedge10 ], [ %.val6297, %.critedge2 ]
  %54 = getelementptr i8, ptr %.val62100, i64 8
  %.val67.val = load ptr, ptr %54, align 8
  %55 = getelementptr inbounds nuw ptr, ptr %.val67.val, i64 %indvars.iv115
  %56 = load ptr, ptr %55, align 8
  store ptr %56, ptr %3, align 8
  %57 = call ptr @Abc_NtkNodeSupport(ptr noundef nonnull %0, ptr noundef nonnull %3, i32 noundef 1) #19
  %58 = getelementptr i8, ptr %57, i64 4
  %.val84 = load i32, ptr %58, align 4
  %59 = icmp sgt i32 %.val84, 0
  br i1 %59, label %.lr.ph86, label %.critedge6

.lr.ph86:                                         ; preds = %.lr.ph101
  %60 = getelementptr i8, ptr %57, i64 8
  br label %61

61:                                               ; preds = %.lr.ph86, %61
  %indvars.iv106 = phi i64 [ 0, %.lr.ph86 ], [ %indvars.iv.next107, %61 ]
  %.val58 = load ptr, ptr %60, align 8
  %62 = getelementptr inbounds nuw ptr, ptr %.val58, i64 %indvars.iv106
  %63 = load ptr, ptr %62, align 8
  store ptr %63, ptr %3, align 8
  %64 = getelementptr inbounds nuw i8, ptr %63, i64 20
  %65 = load i32, ptr %64, align 4
  %66 = or i32 %65, 16
  store i32 %66, ptr %64, align 4
  %indvars.iv.next107 = add nuw nsw i64 %indvars.iv106, 1
  %.val = load i32, ptr %58, align 4
  %67 = sext i32 %.val to i64
  %68 = icmp slt i64 %indvars.iv.next107, %67
  br i1 %68, label %61, label %.critedge6, !llvm.loop !87

.critedge6:                                       ; preds = %61, %.lr.ph101
  %69 = getelementptr inbounds nuw i8, ptr %57, i64 8
  %70 = load ptr, ptr %69, align 8
  %.not.i71 = icmp eq ptr %70, null
  br i1 %.not.i71, label %Vec_PtrFree.exit72, label %71

71:                                               ; preds = %.critedge6
  call void @free(ptr noundef nonnull %70) #19
  br label %Vec_PtrFree.exit72

Vec_PtrFree.exit72:                               ; preds = %.critedge6, %71
  call void @free(ptr noundef nonnull %57) #19
  %.val6087 = load ptr, ptr %40, align 8
  %72 = getelementptr i8, ptr %.val6087, i64 4
  %.val60.val88 = load i32, ptr %72, align 4
  %73 = icmp sgt i32 %.val60.val88, 0
  br i1 %73, label %.lr.ph91, label %.critedge8

.lr.ph91:                                         ; preds = %Vec_PtrFree.exit72, %.lr.ph91
  %indvars.iv109 = phi i64 [ %indvars.iv.next110, %.lr.ph91 ], [ 0, %Vec_PtrFree.exit72 ]
  %.val6090 = phi ptr [ %.val60, %.lr.ph91 ], [ %.val6087, %Vec_PtrFree.exit72 ]
  %74 = getelementptr i8, ptr %.val6090, i64 8
  %.val65.val = load ptr, ptr %74, align 8
  %75 = getelementptr inbounds nuw ptr, ptr %.val65.val, i64 %indvars.iv109
  %76 = load ptr, ptr %75, align 8
  store ptr %76, ptr %3, align 8
  %77 = getelementptr inbounds nuw i8, ptr %76, i64 20
  %78 = load i32, ptr %77, align 4
  %79 = lshr i32 %78, 4
  %80 = and i32 %79, 1
  %81 = call i32 (ptr, ...) @printf(ptr noundef nonnull dereferenceable(1) @.str.117, i32 noundef %80)
  %indvars.iv.next110 = add nuw nsw i64 %indvars.iv109, 1
  %.val60 = load ptr, ptr %40, align 8
  %82 = getelementptr i8, ptr %.val60, i64 4
  %.val60.val = load i32, ptr %82, align 4
  %83 = sext i32 %.val60.val to i64
  %84 = icmp slt i64 %indvars.iv.next110, %83
  br i1 %84, label %.lr.ph91, label %.critedge8, !llvm.loop !88

.critedge8:                                       ; preds = %.lr.ph91, %Vec_PtrFree.exit72
  %putchar = call i32 @putchar(i32 10)
  %.val5992 = load ptr, ptr %40, align 8
  %85 = getelementptr i8, ptr %.val5992, i64 4
  %.val59.val93 = load i32, ptr %85, align 4
  %86 = icmp sgt i32 %.val59.val93, 0
  br i1 %86, label %.lr.ph96, label %.critedge10

.lr.ph96:                                         ; preds = %.critedge8, %.lr.ph96
  %indvars.iv112 = phi i64 [ %indvars.iv.next113, %.lr.ph96 ], [ 0, %.critedge8 ]
  %.val5995 = phi ptr [ %.val59, %.lr.ph96 ], [ %.val5992, %.critedge8 ]
  %87 = getelementptr i8, ptr %.val5995, i64 8
  %.val64.val = load ptr, ptr %87, align 8
  %88 = getelementptr inbounds nuw ptr, ptr %.val64.val, i64 %indvars.iv112
  %89 = load ptr, ptr %88, align 8
  store ptr %89, ptr %3, align 8
  %90 = getelementptr inbounds nuw i8, ptr %89, i64 20
  %91 = load i32, ptr %90, align 4
  %92 = and i32 %91, -17
  store i32 %92, ptr %90, align 4
  %indvars.iv.next113 = add nuw nsw i64 %indvars.iv112, 1
  %.val59 = load ptr, ptr %40, align 8
  %93 = getelementptr i8, ptr %.val59, i64 4
  %.val59.val = load i32, ptr %93, align 4
  %94 = sext i32 %.val59.val to i64
  %95 = icmp slt i64 %indvars.iv.next113, %94
  br i1 %95, label %.lr.ph96, label %.critedge10, !llvm.loop !89

.critedge10:                                      ; preds = %.lr.ph96, %.critedge8
  %indvars.iv.next116 = add nuw nsw i64 %indvars.iv115, 1
  %.val62 = load ptr, ptr %4, align 8
  %96 = getelementptr i8, ptr %.val62, i64 4
  %.val62.val = load i32, ptr %96, align 4
  %97 = sext i32 %.val62.val to i64
  %98 = icmp slt i64 %indvars.iv.next116, %97
  br i1 %98, label %.lr.ph101, label %.critedge4, !llvm.loop !90

.critedge4:                                       ; preds = %.critedge10, %.critedge2, %.critedge
  call void @Abc_NtkCleanMarkA(ptr noundef nonnull %0) #19
  ret void
}